target datalayout = "e-m:e-p270:32:32-p271:32:32-p272:64:64-i64:64-i128:128-f80:128-n8:16:32:64-S128"
target triple = "x86_64-pc-linux-gnu"

%"struct.__cxxabiv1::__dynamic_cast_info" = type { ptr, ptr, ptr, i64, ptr, ptr, i32, i32, i32, i32, i32, i32, i32, i8, i8, i8, i8, ptr }
%"class.std::type_info" = type { ptr, ptr }

; Function Attrs: alwaysinline mustprogress nounwind uwtable
define linkonce_odr hidden noundef ptr @_ZNSt27__type_info_implementations18__string_impl_base21__type_name_to_stringB8ne210000EPKc(ptr noundef %0) #10 comdat align 2 {
  %2 = alloca ptr, align 8
  store ptr %0, ptr %2, align 8, !tbaa !38
  %3 = load ptr, ptr %2, align 8, !tbaa !38
  ret ptr %3
}

; Function Attrs: alwaysinline mustprogress nounwind uwtable
define linkonce_odr hidden noundef zeroext i1 @_ZNSt27__type_info_implementations13__unique_impl4__eqB8ne210000EPKcS2_(ptr noundef %0, ptr noundef %1) #10 comdat align 2 {
  %3 = alloca ptr, align 8
  %4 = alloca ptr, align 8
  store ptr %0, ptr %3, align 8, !tbaa !38
  store ptr %1, ptr %4, align 8, !tbaa !38
  %5 = load ptr, ptr %3, align 8, !tbaa !38
  %6 = load ptr, ptr %4, align 8, !tbaa !38
  %7 = icmp eq ptr %5, %6
  ret i1 %7
}

; Function Attrs: mustprogress nounwind uwtable
define linkonce_odr hidden noundef ptr @_ZNKSt9type_info4nameB8ne210000Ev(ptr noundef nonnull align 8 dereferenceable(16) %0) #1 comdat align 2 {
  %2 = alloca ptr, align 8
  store ptr %0, ptr %2, align 8, !tbaa !31
  %3 = load ptr, ptr %2, align 8
  %4 = getelementptr inbounds nuw %"class.std::type_info", ptr %3, i32 0, i32 1
  %5 = load ptr, ptr %4, align 8, !tbaa !81
  %6 = call noundef ptr @_ZNSt27__type_info_implementations18__string_impl_base21__type_name_to_stringB8ne210000EPKc(ptr noundef %5) #11
  ret ptr %6
}

; Function Attrs: mustprogress nounwind uwtable
define linkonce_odr hidden noundef zeroext i1 @_ZNKSt9type_infoeqB8ne210000ERKS_(ptr noundef nonnull align 8 dereferenceable(16) %0, ptr noundef nonnull align 8 dereferenceable(16) %1) #1 comdat align 2 {
  %3 = alloca ptr, align 8
  %4 = alloca ptr, align 8
  store ptr %0, ptr %3, align 8, !tbaa !31
  store ptr %1, ptr %4, align 8, !tbaa !31
  %5 = load ptr, ptr %3, align 8
  %6 = getelementptr inbounds nuw %"class.std::type_info", ptr %5, i32 0, i32 1
  %7 = load ptr, ptr %6, align 8, !tbaa !81
  %8 = load ptr, ptr %4, align 8, !tbaa !31
  %9 = getelementptr inbounds nuw %"class.std::type_info", ptr %8, i32 0, i32 1
  %10 = load ptr, ptr %9, align 8, !tbaa !81
  %11 = call noundef zeroext i1 @_ZNSt27__type_info_implementations13__unique_impl4__eqB8ne210000EPKcS2_(ptr noundef %7, ptr noundef %10) #11
  ret i1 %11
}

; Function Attrs: mustprogress nounwind uwtable
define hidden void @_ZNK10__cxxabiv117__class_type_info29process_static_type_above_dstEPNS_19__dynamic_cast_infoEPKvS4_i(ptr noundef nonnull align 8 dereferenceable(16) %0, ptr noundef %1, ptr noundef %2, ptr noundef %3, i32 noundef %4) #1 align 2 {
  %6 = alloca ptr, align 8
  %7 = alloca ptr, align 8
  %8 = alloca ptr, align 8
  %9 = alloca ptr, align 8
  %10 = alloca i32, align 4
  store ptr %0, ptr %6, align 8, !tbaa !17
  store ptr %1, ptr %7, align 8, !tbaa !68
  store ptr %2, ptr %8, align 8, !tbaa !37
  store ptr %3, ptr %9, align 8, !tbaa !37
  store i32 %4, ptr %10, align 4, !tbaa !70
  %11 = load ptr, ptr %7, align 8, !tbaa !68
  %12 = getelementptr inbounds nuw %"struct.__cxxabiv1::__dynamic_cast_info", ptr %11, i32 0, i32 14
  store i8 1, ptr %12, align 1, !tbaa !57
  %13 = load ptr, ptr %9, align 8, !tbaa !37
  %14 = load ptr, ptr %7, align 8, !tbaa !68
  %15 = getelementptr inbounds nuw %"struct.__cxxabiv1::__dynamic_cast_info", ptr %14, i32 0, i32 1
  %16 = load ptr, ptr %15, align 8, !tbaa !44
  %17 = icmp eq ptr %13, %16
  br i1 %17, label %18, label %85

18:                                               ; preds = %5
  %19 = load ptr, ptr %7, align 8, !tbaa !68
  %20 = getelementptr inbounds nuw %"struct.__cxxabiv1::__dynamic_cast_info", ptr %19, i32 0, i32 13
  store i8 1, ptr %20, align 4, !tbaa !56
  %21 = load ptr, ptr %7, align 8, !tbaa !68
  %22 = getelementptr inbounds nuw %"struct.__cxxabiv1::__dynamic_cast_info", ptr %21, i32 0, i32 4
  %23 = load ptr, ptr %22, align 8, !tbaa !47
  %24 = icmp eq ptr %23, null
  br i1 %24, label %25, label %47

25:                                               ; preds = %18
  %26 = load ptr, ptr %8, align 8, !tbaa !37
  %27 = load ptr, ptr %7, align 8, !tbaa !68
  %28 = getelementptr inbounds nuw %"struct.__cxxabiv1::__dynamic_cast_info", ptr %27, i32 0, i32 4
  store ptr %26, ptr %28, align 8, !tbaa !47
  %29 = load i32, ptr %10, align 4, !tbaa !70
  %30 = load ptr, ptr %7, align 8, !tbaa !68
  %31 = getelementptr inbounds nuw %"struct.__cxxabiv1::__dynamic_cast_info", ptr %30, i32 0, i32 6
  store i32 %29, ptr %31, align 8, !tbaa !49
  %32 = load ptr, ptr %7, align 8, !tbaa !68
  %33 = getelementptr inbounds nuw %"struct.__cxxabiv1::__dynamic_cast_info", ptr %32, i32 0, i32 9
  store i32 1, ptr %33, align 4, !tbaa !52
  %34 = load ptr, ptr %7, align 8, !tbaa !68
  %35 = getelementptr inbounds nuw %"struct.__cxxabiv1::__dynamic_cast_info", ptr %34, i32 0, i32 12
  %36 = load i32, ptr %35, align 8, !tbaa !55
  %37 = icmp eq i32 %36, 1
  br i1 %37, label %38, label %46

38:                                               ; preds = %25
  %39 = load ptr, ptr %7, align 8, !tbaa !68
  %40 = getelementptr inbounds nuw %"struct.__cxxabiv1::__dynamic_cast_info", ptr %39, i32 0, i32 6
  %41 = load i32, ptr %40, align 8, !tbaa !49
  %42 = icmp eq i32 %41, 1
  br i1 %42, label %43, label %46

43:                                               ; preds = %38
  %44 = load ptr, ptr %7, align 8, !tbaa !68
  %45 = getelementptr inbounds nuw %"struct.__cxxabiv1::__dynamic_cast_info", ptr %44, i32 0, i32 15
  store i8 1, ptr %45, align 2, !tbaa !58
  br label %46

46:                                               ; preds = %43, %38, %25
  br label %84

47:                                               ; preds = %18
  %48 = load ptr, ptr %7, align 8, !tbaa !68
  %49 = getelementptr inbounds nuw %"struct.__cxxabiv1::__dynamic_cast_info", ptr %48, i32 0, i32 4
  %50 = load ptr, ptr %49, align 8, !tbaa !47
  %51 = load ptr, ptr %8, align 8, !tbaa !37
  %52 = icmp eq ptr %50, %51
  br i1 %52, label %53, label %76

53:                                               ; preds = %47
  %54 = load ptr, ptr %7, align 8, !tbaa !68
  %55 = getelementptr inbounds nuw %"struct.__cxxabiv1::__dynamic_cast_info", ptr %54, i32 0, i32 6
  %56 = load i32, ptr %55, align 8, !tbaa !49
  %57 = icmp eq i32 %56, 2
  br i1 %57, label %58, label %62

58:                                               ; preds = %53
  %59 = load i32, ptr %10, align 4, !tbaa !70
  %60 = load ptr, ptr %7, align 8, !tbaa !68
  %61 = getelementptr inbounds nuw %"struct.__cxxabiv1::__dynamic_cast_info", ptr %60, i32 0, i32 6
  store i32 %59, ptr %61, align 8, !tbaa !49
  br label %62

62:                                               ; preds = %58, %53
  %63 = load ptr, ptr %7, align 8, !tbaa !68
  %64 = getelementptr inbounds nuw %"struct.__cxxabiv1::__dynamic_cast_info", ptr %63, i32 0, i32 12
  %65 = load i32, ptr %64, align 8, !tbaa !55
  %66 = icmp eq i32 %65, 1
  br i1 %66, label %67, label %75

67:                                               ; preds = %62
  %68 = load ptr, ptr %7, align 8, !tbaa !68
  %69 = getelementptr inbounds nuw %"struct.__cxxabiv1::__dynamic_cast_info", ptr %68, i32 0, i32 6
  %70 = load i32, ptr %69, align 8, !tbaa !49
  %71 = icmp eq i32 %70, 1
  br i1 %71, label %72, label %75

72:                                               ; preds = %67
  %73 = load ptr, ptr %7, align 8, !tbaa !68
  %74 = getelementptr inbounds nuw %"struct.__cxxabiv1::__dynamic_cast_info", ptr %73, i32 0, i32 15
  store i8 1, ptr %74, align 2, !tbaa !58
  br label %75

75:                                               ; preds = %72, %67, %62
  br label %83

76:                                               ; preds = %47
  %77 = load ptr, ptr %7, align 8, !tbaa !68
  %78 = getelementptr inbounds nuw %"struct.__cxxabiv1::__dynamic_cast_info", ptr %77, i32 0, i32 9
  %79 = load i32, ptr %78, align 4, !tbaa !52
  %80 = add nsw i32 %79, 1
  store i32 %80, ptr %78, align 4, !tbaa !52
  %81 = load ptr, ptr %7, align 8, !tbaa !68
  %82 = getelementptr inbounds nuw %"struct.__cxxabiv1::__dynamic_cast_info", ptr %81, i32 0, i32 15
  store i8 1, ptr %82, align 2, !tbaa !58
  br label %83

83:                                               ; preds = %76, %75
  br label %84

84:                                               ; preds = %83, %46
  br label %85

85:                                               ; preds = %84, %5
  ret void
}

; Function Attrs: inlinehint mustprogress nounwind uwtable
define internal noundef zeroext i1 @_ZL8is_equalPKSt9type_infoS1_b(ptr noundef %0, ptr noundef %1, i1 noundef zeroext %2) #5 {
  %4 = alloca i1, align 1
  %5 = alloca ptr, align 8
  %6 = alloca ptr, align 8
  %7 = alloca i8, align 1
  store ptr %0, ptr %5, align 8, !tbaa !31
  store ptr %1, ptr %6, align 8, !tbaa !31
  %8 = zext i1 %2 to i8
  store i8 %8, ptr %7, align 1, !tbaa !33
  %9 = load i8, ptr %7, align 1, !tbaa !33, !range !35, !noundef !36
  %10 = trunc i8 %9 to i1
  br i1 %10, label %15, label %11

11:                                               ; preds = %3
  %12 = load ptr, ptr %5, align 8, !tbaa !31
  %13 = load ptr, ptr %6, align 8, !tbaa !31
  %14 = call noundef zeroext i1 @_ZNKSt9type_infoeqB8ne210000ERKS_(ptr noundef nonnull align 8 dereferenceable(16) %12, ptr noundef nonnull align 8 dereferenceable(16) %13) #11
  store i1 %14, ptr %4, align 1
  br label %28

15:                                               ; preds = %3
  %16 = load ptr, ptr %5, align 8, !tbaa !31
  %17 = load ptr, ptr %6, align 8, !tbaa !31
  %18 = icmp eq ptr %16, %17
  br i1 %18, label %26, label %19

19:                                               ; preds = %15
  %20 = load ptr, ptr %5, align 8, !tbaa !31
  %21 = call noundef ptr @_ZNKSt9type_info4nameB8ne210000Ev(ptr noundef nonnull align 8 dereferenceable(16) %20) #11
  %22 = load ptr, ptr %6, align 8, !tbaa !31
  %23 = call noundef ptr @_ZNKSt9type_info4nameB8ne210000Ev(ptr noundef nonnull align 8 dereferenceable(16) %22) #11
  %24 = call i32 @strcmp(ptr noundef %21, ptr noundef %23) #14
  %25 = icmp eq i32 %24, 0
  br label %26

26:                                               ; preds = %19, %15
  %27 = phi i1 [ true, %15 ], [ %25, %19 ]
  store i1 %27, ptr %4, align 1
  br label %28

28:                                               ; preds = %26, %11
  %29 = load i1, ptr %4, align 1
  ret i1 %29
}

; Function Attrs: mustprogress uwtable
define hidden void @_ZNK10__cxxabiv117__class_type_info16search_above_dstEPNS_19__dynamic_cast_infoEPKvS4_ib(ptr noundef nonnull align 8 dereferenceable(16) %0, ptr noundef %1, ptr noundef %2, ptr noundef %3, i32 noundef %4, i1 noundef zeroext %5) unnamed_addr #4 align 2 {
  %7 = alloca ptr, align 8
  %8 = alloca ptr, align 8
  %9 = alloca ptr, align 8
  %10 = alloca ptr, align 8
  %11 = alloca i32, align 4
  %12 = alloca i8, align 1
  store ptr %0, ptr %7, align 8, !tbaa !17
  store ptr %1, ptr %8, align 8, !tbaa !68
  store ptr %2, ptr %9, align 8, !tbaa !37
  store ptr %3, ptr %10, align 8, !tbaa !37
  store i32 %4, ptr %11, align 4, !tbaa !70
  %13 = zext i1 %5 to i8
  store i8 %13, ptr %12, align 1, !tbaa !33
  %14 = load ptr, ptr %7, align 8
  %15 = load ptr, ptr %8, align 8, !tbaa !68
  %16 = getelementptr inbounds nuw %"struct.__cxxabiv1::__dynamic_cast_info", ptr %15, i32 0, i32 2
  %17 = load ptr, ptr %16, align 8, !tbaa !45
  %18 = load i8, ptr %12, align 1, !tbaa !33, !range !35, !noundef !36
  %19 = trunc i8 %18 to i1
  %20 = call noundef zeroext i1 @_ZL8is_equalPKSt9type_infoS1_b(ptr noundef %14, ptr noundef %17, i1 noundef zeroext %19)
  br i1 %20, label %21, label %26

21:                                               ; preds = %6
  %22 = load ptr, ptr %8, align 8, !tbaa !68
  %23 = load ptr, ptr %9, align 8, !tbaa !37
  %24 = load ptr, ptr %10, align 8, !tbaa !37
  %25 = load i32, ptr %11, align 4, !tbaa !70
  call void @_ZNK10__cxxabiv117__class_type_info29process_static_type_above_dstEPNS_19__dynamic_cast_infoEPKvS4_i(ptr noundef nonnull align 8 dereferenceable(16) %14, ptr noundef %22, ptr noundef %23, ptr noundef %24, i32 noundef %25)
  br label %26

26:                                               ; preds = %21, %6
  ret void
}